Certificate:
    Data:
        Version: 3 (0x2)
        Serial Number: 14101377555814012246 (0xc3b2282cb9f5d556)
    Signature Algorithm: sha256WithRSAEncryption
        Issuer: CN=test.cesanta.com, O=Cesanta, OU=testing
        Validity
            Not Before: Dec 13 14:30:07 2015 GMT
            Not After : Dec 10 14:30:07 2025 GMT
        Subject: CN=test.cesanta.com, O=Cesanta, OU=testing
        Subject Public Key Info:
            Public Key Algorithm: rsaEncryption
                Public-Key: (1024 bit)
                Modulus:
                    00:c1:6c:a5:56:ef:b8:3d:53:71:a3:e0:23:e1:30:
                    3f:95:29:51:0b:7c:b8:a3:8d:13:80:0d:00:9d:85:
                    aa:77:1e:64:b5:d4:4c:21:d9:86:69:5d:bf:68:21:
                    1e:67:48:e8:50:c1:07:cf:8d:8c:12:ed:ab:28:84:
                    22:3c:8b:f7:67:df:cf:01:53:0f:8a:6a:c5:c2:57:
                    94:a2:ec:e2:ac:8b:9e:78:28:ce:51:9f:8b:40:31:
                    14:14:77:0d:57:9e:66:eb:e7:a2:14:ce:f2:d2:69:
                    47:1c:e7:8a:f1:05:7e:78:84:ed:d7:64:eb:e1:a2:
                    27:27:33:8b:a3:d2:ae:58:87
                Exponent: 65537 (0x10001)
        X509v3 extensions:
            X509v3 Subject Key Identifier: 
                2C:91:7C:C0:07:51:2A:CA:B9:E8:D8:FA:DE:31:A9:3C:FC:36:6E:CA
            X509v3 Authority Key Identifier: 
                keyid:2C:91:7C:C0:07:51:2A:CA:B9:E8:D8:FA:DE:31:A9:3C:FC:36:6E:CA

            X509v3 Basic Constraints: 
                CA:TRUE
    Signature Algorithm: sha256WithRSAEncryption
         7c:d4:b5:c1:9c:00:03:9c:c0:6a:10:dd:d5:bc:4c:9e:a0:12:
         09:1c:ad:8c:e0:36:20:7c:d2:24:cb:f9:29:2d:9a:9a:9d:03:
         d7:69:e5:d8:db:84:4f:2d:9a:ea:90:14:91:6b:ea:d7:a5:c0:
         2e:a0:40:1b:70:70:ae:4f:27:22:1f:bf:4e:89:8b:b1:8f:4a:
         29:a4:10:52:58:23:20:fc:7b:d6:45:7b:31:30:22:41:4c:c4:
         e5:92:eb:1c:5d:c7:8b:b9:b6:95:7f:9d:eb:ac:1e:90:cd:af:
         27:f0:6a:80:39:58:7c:17:a1:7d:74:2f:01:d3:56:52:75:6c:
         ae:2a
-----BEGIN CERTIFICATE-----
MIICTDCCAbWgAwIBAgIJAMOyKCy59dVWMA0GCSqGSIb3DQEBCwUAMD8xGTAXBgNV
BAMMEHRlc3QuY2VzYW50YS5jb20xEDAOBgNVBAoMB0Nlc2FudGExEDAOBgNVBAsM
B3Rlc3RpbmcwHhcNMTUxMjEzMTQzMDA3WhcNMjUxMjEwMTQzMDA3WjA/MRkwFwYD
VQQDDBB0ZXN0LmNlc2FudGEuY29tMRAwDgYDVQQKDAdDZXNhbnRhMRAwDgYDVQQL
DAd0ZXN0aW5nMIGfMA0GCSqGSIb3DQEBAQUAA4GNADCBiQKBgQDBbKVW77g9U3Gj
4CPhMD+VKVELfLijjROADQCdhap3HmS11Ewh2YZpXb9oIR5nSOhQwQfPjYwS7aso
hCI8i/dn388BUw+KasXCV5Si7OKsi554KM5Rn4tAMRQUdw1Xnmbr56IUzvLSaUcc
54rxBX54hO3XZOvhoicnM4uj0q5YhwIDAQABo1AwTjAdBgNVHQ4EFgQULJF8wAdR
Ksq56Nj63jGpPPw2bsowHwYDVR0jBBgwFoAULJF8wAdRKsq56Nj63jGpPPw2bsow
DAYDVR0TBAUwAwEB/zANBgkqhkiG9w0BAQsFAAOBgQB81LXBnAADnMBqEN3VvEye
oBIJHK2M4DYgfNIky/kpLZqanQPXaeXY24RPLZrqkBSRa+rXpcAuoEAbcHCuTyci
H79OiYuxj0oppBBSWCMg/HvWRXsxMCJBTMTlkuscXceLubaVf53rrB6Qza8n8GqA
OVh8F6F9dC8B01ZSdWyuKg==
-----END CERTIFICATE-----
