Certificate:
    Data:
        Version: 3 (0x2)
        Serial Number: 0 (0x0)
    Signature Algorithm: sha1WithRSAEncryption
        Issuer: CN=test.cesanta.com, O=Cesanta, OU=testing
        Validity
            Not Before: Dec 13 14:30:07 2015 GMT
            Not After : Sep 11 14:30:07 2025 GMT
        Subject: CN=do.not.use.me
        Subject Public Key Info:
            Public Key Algorithm: rsaEncryption
                Public-Key: (1024 bit)
                Modulus:
                    00:cc:86:80:91:84:ed:7b:16:2c:76:28:f0:8f:82:
                    50:13:2c:8f:35:c1:e7:a7:69:f3:44:bf:8b:f0:3f:
                    e7:48:24:20:fa:a6:5b:93:73:4d:a6:6e:07:1b:47:
                    bf:d5:60:93:cd:73:65:d6:52:ad:66:c5:2c:3e:98:
                    bb:a7:e2:4e:f9:1b:25:d7:3b:f4:c2:58:fc:15:fb:
                    f5:32:f8:cb:98:54:a7:62:70:5f:44:45:19:13:5b:
                    cb:ae:14:8a:b3:44:74:e5:7b:fa:32:37:f2:d3:83:
                    d7:fa:af:5f:c2:be:dc:51:d6:9c:cd:5b:42:08:3b:
                    97:5a:04:ce:cd:65:95:47:f1
                Exponent: 65537 (0x10001)
        X509v3 extensions:
            X509v3 Basic Constraints: 
                CA:FALSE
            X509v3 Key Usage: 
                Key Encipherment, Key Agreement
            X509v3 Extended Key Usage: 
                TLS Web Server Authentication
            X509v3 Subject Alternative Name: 
                IP Address:127.0.0.1, DNS:never.use.me, DNS:except.for.tests
    Signature Algorithm: sha1WithRSAEncryption
         59:f1:69:61:79:68:07:14:2b:34:a4:64:f7:a9:3f:e9:3a:90:
         ab:07:47:28:5e:3e:aa:ca:7f:24:89:e7:61:b9:89:d2:f4:1f:
         83:56:32:b8:71:24:96:00:d3:9c:eb:63:ff:f7:fa:1d:c4:65:
         2f:34:81:3c:47:b1:35:32:ce:9c:db:f1:c8:9a:f3:95:02:2e:
         68:08:aa:72:c0:2e:5c:6b:2d:8f:0d:ad:8b:f8:c0:05:be:04:
         3e:b5:1f:ce:9c:bb:4f:50:ff:10:99:b5:14:5c:bd:b5:53:de:
         e4:c5:e4:ef:24:c7:20:31:0a:b7:1e:83:62:45:dc:9b:70:6f:
         56:f5
-----BEGIN CERTIFICATE-----
MIICLTCCAZagAwIBAgIBADANBgkqhkiG9w0BAQUFADA/MRkwFwYDVQQDDBB0ZXN0
LmNlc2FudGEuY29tMRAwDgYDVQQKDAdDZXNhbnRhMRAwDgYDVQQLDAd0ZXN0aW5n
MB4XDTE1MTIxMzE0MzAwN1oXDTI1MDkxMTE0MzAwN1owGDEWMBQGA1UEAwwNZG8u
bm90LnVzZS5tZTCBnzANBgkqhkiG9w0BAQEFAAOBjQAwgYkCgYEAzIaAkYTtexYs
dijwj4JQEyyPNcHnp2nzRL+L8D/nSCQg+qZbk3NNpm4HG0e/1WCTzXNl1lKtZsUs
Ppi7p+JO+Rsl1zv0wlj8Ffv1MvjLmFSnYnBfREUZE1vLrhSKs0R05Xv6Mjfy04PX
+q9fwr7cUdaczVtCCDuXWgTOzWWVR/ECAwEAAaNgMF4wCQYDVR0TBAIwADALBgNV
HQ8EBAMCAygwEwYDVR0lBAwwCgYIKwYBBQUHAwEwLwYDVR0RBCgwJocEfwAAAYIM
bmV2ZXIudXNlLm1lghBleGNlcHQuZm9yLnRlc3RzMA0GCSqGSIb3DQEBBQUAA4GB
AFnxaWF5aAcUKzSkZPepP+k6kKsHRyhePqrKfySJ52G5idL0H4NWMrhxJJYA05zr
Y//3+h3EZS80gTxHsTUyzpzb8cia85UCLmgIqnLALlxrLY8NrYv4wAW+BD61H86c
u09Q/xCZtRRcvbVT3uTF5O8kxyAxCrceg2JF3Jtwb1b1
-----END CERTIFICATE-----
